target datalayout = "e-m:e-p270:32:32-p271:32:32-p272:64:64-i64:64-i128:128-f80:128-n8:16:32:64-S128"
target triple = "x86_64-unknown-linux-gnu"

@progress_printed = dso_local global i64 0, align 8
@progress_full = dso_local global i64 0, align 8
@stdout = external global ptr, align 8
@.str.6 = private unnamed_addr constant [3 x i8] c"%c\00", align 1
@.str.8 = private unnamed_addr constant [20 x i8] c"(bytes & 4095) == 0\00", align 1
@.str.9 = private unnamed_addr constant [10 x i8] c"memtest.c\00", align 1
@.str.10 = private unnamed_addr constant [51 x i8] c"\0A*** MEMORY ERROR DETECTED: %p != %p (%lu vs %lu)\0A\00", align 1

; Function Attrs: nounwind uwtable
define dso_local void @memtest_progress_step(i64 noundef %curr, i64 noundef %size, i8 noundef signext %c) #0 {
entry:
  %curr.addr = alloca i64, align 8
  %size.addr = alloca i64, align 8
  %c.addr = alloca i8, align 1
  %chars = alloca i64, align 8
  %j = alloca i64, align 8
  store i64 %curr, ptr %curr.addr, align 8
  store i64 %size, ptr %size.addr, align 8
  store i8 %c, ptr %c.addr, align 1
  %0 = load i64, ptr %curr.addr, align 8
  %1 = load i64, ptr @progress_full, align 8
  %mul = mul i64 %0, %1
  %2 = load i64, ptr %size.addr, align 8
  %div = udiv i64 %mul, %2
  store i64 %div, ptr %chars, align 8
  store i64 0, ptr %j, align 8
  br label %for.cond

for.cond:                                         ; preds = %for.inc, %entry
  %3 = load i64, ptr %j, align 8
  %4 = load i64, ptr %chars, align 8
  %5 = load i64, ptr @progress_printed, align 8
  %sub = sub i64 %4, %5
  %cmp = icmp ult i64 %3, %sub
  br i1 %cmp, label %for.body, label %for.end

for.body:                                         ; preds = %for.cond
  %6 = load i8, ptr %c.addr, align 1
  %conv = sext i8 %6 to i32
  %call = call i32 (ptr, ...) @printf(ptr noundef @.str.6, i32 noundef %conv)
  br label %for.inc

for.inc:                                          ; preds = %for.body
  %7 = load i64, ptr %j, align 8
  %inc = add i64 %7, 1
  store i64 %inc, ptr %j, align 8
  br label %for.cond, !llvm.loop !7

for.end:                                          ; preds = %for.cond
  %8 = load i64, ptr %chars, align 8
  store i64 %8, ptr @progress_printed, align 8
  %9 = load ptr, ptr @stdout, align 8
  %call1 = call i32 @fflush(ptr noundef %9)
  ret void
}

; Function Attrs: nounwind uwtable
define dso_local i32 @memtest_compare(ptr noundef %l, i64 noundef %bytes, i32 noundef %interactive) #0 {
entry:
  %retval = alloca i32, align 4
  %l.addr = alloca ptr, align 8
  %bytes.addr = alloca i64, align 8
  %interactive.addr = alloca i32, align 4
  %words = alloca i64, align 8
  %w = alloca i64, align 8
  %l1 = alloca ptr, align 8
  %l2 = alloca ptr, align 8
  store ptr %l, ptr %l.addr, align 8
  store i64 %bytes, ptr %bytes.addr, align 8
  store i32 %interactive, ptr %interactive.addr, align 4
  %0 = load i64, ptr %bytes.addr, align 8
  %div = udiv i64 %0, 8
  %div1 = udiv i64 %div, 2
  store i64 %div1, ptr %words, align 8
  %1 = load i64, ptr %bytes.addr, align 8
  %and = and i64 %1, 4095
  %cmp = icmp eq i64 %and, 0
  %lnot = xor i1 %cmp, true
  %lnot2 = xor i1 %lnot, true
  %lnot.ext = zext i1 %lnot2 to i32
  %conv = sext i32 %lnot.ext to i64
  %tobool = icmp ne i64 %conv, 0
  br i1 %tobool, label %cond.true, label %cond.false

cond.true:                                        ; preds = %entry
  br label %cond.end

cond.false:                                       ; preds = %entry
  call void @_serverAssert(ptr noundef @.str.8, ptr noundef @.str.9, i32 noundef 208)
  call void @abort() #7
  unreachable

2:                                                ; No predecessors!
  br label %cond.end

cond.end:                                         ; preds = %2, %cond.true
  %3 = load ptr, ptr %l.addr, align 8
  store ptr %3, ptr %l1, align 8
  %4 = load ptr, ptr %l1, align 8
  %5 = load i64, ptr %words, align 8
  %add.ptr = getelementptr inbounds i64, ptr %4, i64 %5
  store ptr %add.ptr, ptr %l2, align 8
  store i64 0, ptr %w, align 8
  br label %for.cond

for.cond:                                         ; preds = %for.inc, %cond.end
  %6 = load i64, ptr %w, align 8
  %7 = load i64, ptr %words, align 8
  %cmp3 = icmp ult i64 %6, %7
  br i1 %cmp3, label %for.body, label %for.end

for.body:                                         ; preds = %for.cond
  %8 = load ptr, ptr %l1, align 8
  %9 = load i64, ptr %8, align 8
  %10 = load ptr, ptr %l2, align 8
  %11 = load i64, ptr %10, align 8
  %cmp5 = icmp ne i64 %9, %11
  br i1 %cmp5, label %if.then, label %if.end9

if.then:                                          ; preds = %for.body
  %12 = load i32, ptr %interactive.addr, align 4
  %tobool7 = icmp ne i32 %12, 0
  br i1 %tobool7, label %if.then8, label %if.end

if.then8:                                         ; preds = %if.then
  %13 = load ptr, ptr %l1, align 8
  %14 = load ptr, ptr %l2, align 8
  %15 = load ptr, ptr %l1, align 8
  %16 = load i64, ptr %15, align 8
  %17 = load ptr, ptr %l2, align 8
  %18 = load i64, ptr %17, align 8
  %call = call i32 (ptr, ...) @printf(ptr noundef @.str.10, ptr noundef %13, ptr noundef %14, i64 noundef %16, i64 noundef %18)
  call void @exit(i32 noundef 1) #7
  unreachable

if.end:                                           ; preds = %if.then
  store i32 1, ptr %retval, align 4
  br label %return

if.end9:                                          ; preds = %for.body
  %19 = load ptr, ptr %l1, align 8
  %incdec.ptr = getelementptr inbounds i64, ptr %19, i32 1
  store ptr %incdec.ptr, ptr %l1, align 8
  %20 = load ptr, ptr %l2, align 8
  %incdec.ptr10 = getelementptr inbounds i64, ptr %20, i32 1
  store ptr %incdec.ptr10, ptr %l2, align 8
  %21 = load i64, ptr %w, align 8
  %and11 = and i64 %21, 65535
  %cmp12 = icmp eq i64 %and11, 0
  br i1 %cmp12, label %land.lhs.true, label %if.end16

land.lhs.true:                                    ; preds = %if.end9
  %22 = load i32, ptr %interactive.addr, align 4
  %tobool14 = icmp ne i32 %22, 0
  br i1 %tobool14, label %if.then15, label %if.end16

if.then15:                                        ; preds = %land.lhs.true
  %23 = load i64, ptr %w, align 8
  %24 = load i64, ptr %words, align 8
  call void @memtest_progress_step(i64 noundef %23, i64 noundef %24, i8 noundef signext 61)
  br label %if.end16

if.end16:                                         ; preds = %if.then15, %land.lhs.true, %if.end9
  br label %for.inc

for.inc:                                          ; preds = %if.end16
  %25 = load i64, ptr %w, align 8
  %inc = add i64 %25, 1
  store i64 %inc, ptr %w, align 8
  br label %for.cond, !llvm.loop !14

for.end:                                          ; preds = %for.cond
  store i32 0, ptr %retval, align 4
  br label %return

return:                                           ; preds = %for.end, %if.end
  %26 = load i32, ptr %retval, align 4
  ret i32 %26
}