; Function Attrs: nounwind uwtable
define dso_local noundef i32 @memtest_compare(ptr noundef %l, i64 noundef %bytes, i32 noundef %interactive) local_unnamed_addr #2 {
entry:
  %div117 = lshr i64 %bytes, 4
  %and = and i64 %bytes, 4095
  %cmp = icmp eq i64 %and, 0
  br i1 %cmp, label %cond.end, label %cond.false

cond.false:                                       ; preds = %entry
  tail call void @_serverAssert(ptr noundef nonnull @.str.8, ptr noundef nonnull @.str.9, i32 noundef 208) #14
  tail call void @abort() #13
  unreachable

cond.end:                                         ; preds = %entry
  %cmp321.not = icmp ult i64 %bytes, 16
  br i1 %cmp321.not, label %return, label %for.body.lr.ph

for.body.lr.ph:                                   ; preds = %cond.end
  %add.ptr = getelementptr inbounds i64, ptr %l, i64 %div117
  %tobool14.not = icmp eq i32 %interactive, 0
  br i1 %tobool14.not, label %for.body.us, label %for.body

for.body.us:                                      ; preds = %for.body.lr.ph, %if.end9.us
  %l2.024.us = phi ptr [ %incdec.ptr10.us, %if.end9.us ], [ %add.ptr, %for.body.lr.ph ]
  %l1.023.us = phi ptr [ %incdec.ptr.us, %if.end9.us ], [ %l, %for.body.lr.ph ]
  %w.022.us = phi i64 [ %inc.us, %if.end9.us ], [ 0, %for.body.lr.ph ]
  %0 = load i64, ptr %l1.023.us, align 8
  %1 = load i64, ptr %l2.024.us, align 8
  %cmp5.not.us = icmp eq i64 %0, %1
  br i1 %cmp5.not.us, label %if.end9.us, label %if.then

if.end9.us:                                       ; preds = %for.body.us
  %incdec.ptr.us = getelementptr inbounds i8, ptr %l1.023.us, i64 8
  %incdec.ptr10.us = getelementptr inbounds i8, ptr %l2.024.us, i64 8
  %inc.us = add nuw nsw i64 %w.022.us, 1
  %exitcond41.not = icmp eq i64 %inc.us, %div117
  br i1 %exitcond41.not, label %return, label %for.body.us, !llvm.loop !14

for.body:                                         ; preds = %for.body.lr.ph, %for.inc
  %l2.024 = phi ptr [ %incdec.ptr10, %for.inc ], [ %add.ptr, %for.body.lr.ph ]
  %l1.023 = phi ptr [ %incdec.ptr, %for.inc ], [ %l, %for.body.lr.ph ]
  %w.022 = phi i64 [ %inc, %for.inc ], [ 0, %for.body.lr.ph ]
  %2 = load i64, ptr %l1.023, align 8
  %3 = load i64, ptr %l2.024, align 8
  %cmp5.not = icmp eq i64 %2, %3
  br i1 %cmp5.not, label %if.end9, label %if.then

if.then:                                          ; preds = %for.body, %for.body.us
  %.us-phi = phi i64 [ %0, %for.body.us ], [ %2, %for.body ]
  %.us-phi25 = phi i64 [ %1, %for.body.us ], [ %3, %for.body ]
  %.us-phi26 = phi ptr [ %l1.023.us, %for.body.us ], [ %l1.023, %for.body ]
  %.us-phi27 = phi ptr [ %l2.024.us, %for.body.us ], [ %l2.024, %for.body ]
  br i1 %tobool14.not, label %return, label %if.then8

if.then8:                                         ; preds = %if.then
  %call = tail call i32 (ptr, ...) @printf(ptr noundef nonnull dereferenceable(1) @.str.10, ptr noundef nonnull %.us-phi26, ptr noundef nonnull %.us-phi27, i64 noundef %.us-phi, i64 noundef %.us-phi25)
  tail call void @exit(i32 noundef 1) #13
  unreachable

if.end9:                                          ; preds = %for.body
  %incdec.ptr = getelementptr inbounds i8, ptr %l1.023, i64 8
  %incdec.ptr10 = getelementptr inbounds i8, ptr %l2.024, i64 8
  %and11 = and i64 %w.022, 65535
  %cmp12 = icmp eq i64 %and11, 0
  br i1 %cmp12, label %if.then15, label %for.inc

if.then15:                                        ; preds = %if.end9
  %4 = load i64, ptr @progress_full, align 8
  %mul.i = mul i64 %4, %w.022
  %div.i = udiv i64 %mul.i, %div117
  %5 = load i64, ptr @progress_printed, align 8
  %cmp4.not.i = icmp eq i64 %div.i, %5
  br i1 %cmp4.not.i, label %memtest_progress_step.exit, label %for.body.i

for.body.i:                                       ; preds = %if.then15, %for.body.i
  %j.05.i = phi i64 [ %inc.i, %for.body.i ], [ 0, %if.then15 ]
  %putchar.i = tail call i32 @putchar(i32 61)
  %inc.i = add nuw i64 %j.05.i, 1
  %6 = load i64, ptr @progress_printed, align 8
  %sub.i = sub i64 %div.i, %6
  %cmp.i = icmp ult i64 %inc.i, %sub.i
  br i1 %cmp.i, label %for.body.i, label %memtest_progress_step.exit, !llvm.loop !7

memtest_progress_step.exit:                       ; preds = %for.body.i, %if.then15
  store i64 %div.i, ptr @progress_printed, align 8
  %7 = load ptr, ptr @stdout, align 8
  %call1.i = tail call i32 @fflush(ptr noundef %7)
  br label %for.inc

for.inc:                                          ; preds = %if.end9, %memtest_progress_step.exit
  %inc = add nuw nsw i64 %w.022, 1
  %exitcond.not = icmp eq i64 %inc, %div117
  br i1 %exitcond.not, label %return, label %for.body, !llvm.loop !14

return:                                           ; preds = %for.inc, %if.end9.us, %cond.end, %if.then
  %retval.0 = phi i32 [ 1, %if.then ], [ 0, %cond.end ], [ 0, %if.end9.us ], [ 0, %for.inc ]
  ret i32 %retval.0
}